target datalayout = "e-m:e-p270:32:32-p271:32:32-p272:64:64-i64:64-i128:128-f80:128-n8:16:32:64-S128"
target triple = "x86_64-pc-linux-gnu"

%"class.OpenColorIO_v2_5dev::MatrixOpData::Offsets" = type { [4 x double] }

; Function Attrs: mustprogress nounwind uwtable
define hidden noundef zeroext i1 @_ZNK19OpenColorIO_v2_5dev12MatrixOpData7Offsets9isNotNullEv(ptr noundef nonnull align 8 dereferenceable(32) %0) #7 align 2 {
  %2 = alloca ptr, align 8
  store ptr %0, ptr %2, align 8, !tbaa !3
  %3 = load ptr, ptr %2, align 8
  %4 = getelementptr inbounds nuw %"class.OpenColorIO_v2_5dev::MatrixOpData::Offsets", ptr %3, i32 0, i32 0
  %5 = getelementptr inbounds [4 x double], ptr %4, i64 0, i64 0
  %6 = load double, ptr %5, align 8, !tbaa !12
  %7 = fcmp une double %6, 0.000000e+00
  br i1 %7, label %23, label %8

8:                                                ; preds = %1
  %9 = getelementptr inbounds nuw %"class.OpenColorIO_v2_5dev::MatrixOpData::Offsets", ptr %3, i32 0, i32 0
  %10 = getelementptr inbounds [4 x double], ptr %9, i64 0, i64 1
  %11 = load double, ptr %10, align 8, !tbaa !12
  %12 = fcmp une double %11, 0.000000e+00
  br i1 %12, label %23, label %13

13:                                               ; preds = %8
  %14 = getelementptr inbounds nuw %"class.OpenColorIO_v2_5dev::MatrixOpData::Offsets", ptr %3, i32 0, i32 0
  %15 = getelementptr inbounds [4 x double], ptr %14, i64 0, i64 2
  %16 = load double, ptr %15, align 8, !tbaa !12
  %17 = fcmp une double %16, 0.000000e+00
  br i1 %17, label %23, label %18

18:                                               ; preds = %13
  %19 = getelementptr inbounds nuw %"class.OpenColorIO_v2_5dev::MatrixOpData::Offsets", ptr %3, i32 0, i32 0
  %20 = getelementptr inbounds [4 x double], ptr %19, i64 0, i64 3
  %21 = load double, ptr %20, align 8, !tbaa !12
  %22 = fcmp une double %21, 0.000000e+00
  br label %23

23:                                               ; preds = %18, %13, %8, %1
  %24 = phi i1 [ true, %13 ], [ true, %8 ], [ true, %1 ], [ %22, %18 ]
  ret i1 %24
}