; Function Attrs: mustprogress nofree norecurse nosync nounwind willreturn memory(argmem: read) uwtable
define hidden noundef zeroext i1 @_ZNK19OpenColorIO_v2_5dev12MatrixOpData7Offsets9isNotNullEv(ptr noundef nonnull readonly align 8 captures(none) dereferenceable(32) %0) local_unnamed_addr #12 align 2 {
  %2 = load double, ptr %0, align 8, !tbaa !7
  %3 = fcmp une double %2, 0.000000e+00
  %4 = getelementptr inbounds nuw i8, ptr %0, i64 8
  %5 = load double, ptr %4, align 8
  %6 = fcmp une double %5, 0.000000e+00
  %or.cond = select i1 %3, i1 true, i1 %6
  %7 = getelementptr inbounds nuw i8, ptr %0, i64 16
  %8 = load double, ptr %7, align 8
  %9 = fcmp une double %8, 0.000000e+00
  %or.cond5 = select i1 %or.cond, i1 true, i1 %9
  br i1 %or.cond5, label %14, label %10

10:                                               ; preds = %1
  %11 = getelementptr inbounds nuw i8, ptr %0, i64 24
  %12 = load double, ptr %11, align 8, !tbaa !7
  %13 = fcmp une double %12, 0.000000e+00
  br label %14

14:                                               ; preds = %10, %1
  %15 = phi i1 [ true, %1 ], [ %13, %10 ]
  ret i1 %15
}